target datalayout = "e-m:e-p270:32:32-p271:32:32-p272:64:64-i64:64-i128:128-f80:128-n8:16:32:64-S128"
target triple = "x86_64-pc-linux-gnu"

%struct.BufferManagerRelation = type { ptr, ptr, i8 }
%struct.RelationData = type { %struct.RelFileLocator, ptr, i32, i32, i8, i8, i8, i8, i8, i32, i32, i32, i32, ptr, ptr, i32, %struct.LockInfoData, ptr, ptr, ptr, ptr, ptr, i8, ptr, ptr, ptr, ptr, ptr, ptr, i32, ptr, i8, ptr, ptr, i32, i8, i32, ptr, i8, ptr, ptr, ptr, ptr, ptr, ptr, ptr, i32, ptr, ptr, ptr, ptr, ptr, ptr, ptr, ptr, ptr, ptr, ptr, ptr, ptr, ptr, ptr, ptr, ptr, ptr, ptr, i32, i8, ptr }
%struct.RelFileLocator = type { i32, i32, i32 }
%struct.LockInfoData = type { %struct.LockRelId }
%struct.LockRelId = type { i32, i32 }
%struct.BrinOptions = type { i32, i32, i8 }

@CritSectionCount = external global i32, align 4
@LocalBufferBlockPointers = external global ptr, align 8
@BufferBlocks = external global ptr, align 8

; Function Attrs: inlinehint nounwind uwtable
define internal ptr @BufferGetBlock(i32 noundef %0) #2 {
  %2 = alloca ptr, align 8
  %3 = alloca i32, align 4
  store i32 %0, ptr %3, align 4
  %4 = load i32, ptr %3, align 4
  %5 = icmp slt i32 %4, 0
  br i1 %5, label %6, label %14

6:                                                ; preds = %1
  %7 = load ptr, ptr @LocalBufferBlockPointers, align 8
  %8 = load i32, ptr %3, align 4
  %9 = sub i32 0, %8
  %10 = sub i32 %9, 1
  %11 = sext i32 %10 to i64
  %12 = getelementptr inbounds ptr, ptr %7, i64 %11
  %13 = load ptr, ptr %12, align 8
  store ptr %13, ptr %2, align 8
  br label %21

14:                                               ; preds = %1
  %15 = load ptr, ptr @BufferBlocks, align 8
  %16 = load i32, ptr %3, align 4
  %17 = sub i32 %16, 1
  %18 = sext i32 %17 to i64
  %19 = mul i64 %18, 8192
  %20 = getelementptr inbounds nuw i8, ptr %15, i64 %19
  store ptr %20, ptr %2, align 8
  br label %21

21:                                               ; preds = %14, %6
  %22 = load ptr, ptr %2, align 8
  ret ptr %22
}

; Function Attrs: inlinehint nounwind uwtable
define internal ptr @BufferGetPage(i32 noundef %0) #2 {
  %2 = alloca i32, align 4
  store i32 %0, ptr %2, align 4
  %3 = load i32, ptr %2, align 4
  %4 = call ptr @BufferGetBlock(i32 noundef %3)
  ret ptr %4
}

; Function Attrs: nounwind uwtable
define dso_local void @brinbuildempty(ptr noundef %0) #0 {
  %2 = alloca ptr, align 8
  %3 = alloca i32, align 4
  %4 = alloca %struct.BufferManagerRelation, align 8
  store ptr %0, ptr %2, align 8
  call void @llvm.lifetime.start.p0(i64 4, ptr %3) #9
  %5 = getelementptr inbounds nuw %struct.BufferManagerRelation, ptr %4, i32 0, i32 0
  %6 = load ptr, ptr %2, align 8
  store ptr %6, ptr %5, align 8
  %7 = getelementptr inbounds nuw %struct.BufferManagerRelation, ptr %4, i32 0, i32 1
  store ptr null, ptr %7, align 8
  %8 = getelementptr inbounds nuw %struct.BufferManagerRelation, ptr %4, i32 0, i32 2
  store i8 0, ptr %8, align 8
  %9 = getelementptr i8, ptr %4, i64 17
  call void @llvm.memset.p0.i64(ptr align 1 %9, i8 0, i64 7, i1 false)
  %10 = call i32 @ExtendBufferedRel(ptr noundef byval(%struct.BufferManagerRelation) align 8 %4, i32 noundef 3, ptr noundef null, i32 noundef 9)
  store i32 %10, ptr %3, align 4
  %11 = load volatile i32, ptr @CritSectionCount, align 4
  %12 = add i32 %11, 1
  store volatile i32 %12, ptr @CritSectionCount, align 4
  %13 = load i32, ptr %3, align 4
  %14 = call ptr @BufferGetPage(i32 noundef %13)
  %15 = load ptr, ptr %2, align 8
  %16 = getelementptr inbounds nuw %struct.RelationData, ptr %15, i32 0, i32 45
  %17 = load ptr, ptr %16, align 8
  %18 = icmp ne ptr %17, null
  br i1 %18, label %19, label %25

19:                                               ; preds = %1
  %20 = load ptr, ptr %2, align 8
  %21 = getelementptr inbounds nuw %struct.RelationData, ptr %20, i32 0, i32 45
  %22 = load ptr, ptr %21, align 8
  %23 = getelementptr inbounds nuw %struct.BrinOptions, ptr %22, i32 0, i32 1
  %24 = load i32, ptr %23, align 4
  br label %26

25:                                               ; preds = %1
  br label %26

26:                                               ; preds = %25, %19
  %27 = phi i32 [ %24, %19 ], [ 128, %25 ]
  call void @brin_metapage_init(ptr noundef %14, i32 noundef %27, i16 noundef zeroext 1)
  %28 = load i32, ptr %3, align 4
  call void @MarkBufferDirty(i32 noundef %28)
  %29 = load i32, ptr %3, align 4
  %30 = call i64 @log_newpage_buffer(i32 noundef %29, i1 noundef zeroext true)
  br label %31

31:                                               ; preds = %26
  %32 = load volatile i32, ptr @CritSectionCount, align 4
  %33 = add i32 %32, -1
  store volatile i32 %33, ptr @CritSectionCount, align 4
  br label %34

34:                                               ; preds = %31
  br label %35

35:                                               ; preds = %34
  %36 = load i32, ptr %3, align 4
  call void @UnlockReleaseBuffer(i32 noundef %36)
  call void @llvm.lifetime.end.p0(i64 4, ptr %3) #9
  ret void
}