; Function Attrs: nounwind uwtable
define dso_local void @brinbuildempty(ptr noundef %0) #0 {
  %2 = alloca %struct.BufferManagerRelation, align 8
  store ptr %0, ptr %2, align 8
  %3 = getelementptr inbounds nuw i8, ptr %2, i64 8
  call void @llvm.memset.p0.i64(ptr noundef nonnull align 8 dereferenceable(16) %3, i8 0, i64 16, i1 false)
  %4 = tail call i32 @ExtendBufferedRel(ptr noundef nonnull byval(%struct.BufferManagerRelation) align 8 %2, i32 noundef 3, ptr noundef null, i32 noundef 9) #10
  %5 = load volatile i32, ptr @CritSectionCount, align 4
  %6 = add i32 %5, 1
  store volatile i32 %6, ptr @CritSectionCount, align 4
  %7 = icmp slt i32 %4, 0
  br i1 %7, label %8, label %14

8:                                                ; preds = %1
  %9 = load ptr, ptr @LocalBufferBlockPointers, align 8
  %10 = xor i32 %4, -1
  %11 = zext nneg i32 %10 to i64
  %12 = getelementptr inbounds nuw ptr, ptr %9, i64 %11
  %13 = load ptr, ptr %12, align 8
  br label %BufferGetPage.exit

14:                                               ; preds = %1
  %15 = load ptr, ptr @BufferBlocks, align 8
  %16 = add nsw i32 %4, -1
  %17 = sext i32 %16 to i64
  %18 = shl nsw i64 %17, 13
  %19 = getelementptr inbounds nuw i8, ptr %15, i64 %18
  br label %BufferGetPage.exit

BufferGetPage.exit:                               ; preds = %8, %14
  %.0.i.i = phi ptr [ %13, %8 ], [ %19, %14 ]
  %20 = getelementptr inbounds nuw i8, ptr %0, i64 304
  %21 = load ptr, ptr %20, align 8
  %.not = icmp eq ptr %21, null
  br i1 %.not, label %25, label %22

22:                                               ; preds = %BufferGetPage.exit
  %23 = getelementptr inbounds nuw i8, ptr %21, i64 4
  %24 = load i32, ptr %23, align 4
  br label %25

25:                                               ; preds = %BufferGetPage.exit, %22
  %26 = phi i32 [ %24, %22 ], [ 128, %BufferGetPage.exit ]
  tail call void @brin_metapage_init(ptr noundef %.0.i.i, i32 noundef %26, i16 noundef zeroext 1) #10
  tail call void @MarkBufferDirty(i32 noundef %4) #10
  %27 = tail call i64 @log_newpage_buffer(i32 noundef %4, i1 noundef zeroext true) #10
  %28 = load volatile i32, ptr @CritSectionCount, align 4
  %29 = add i32 %28, -1
  store volatile i32 %29, ptr @CritSectionCount, align 4
  tail call void @UnlockReleaseBuffer(i32 noundef %4) #10
  ret void
}